; ModuleID = '1/1687.c'
source_filename = "1/1687.c"
target datalayout = "e-m:e-p270:32:32-p271:32:32-p272:64:64-i64:64-f80:128-n8:16:32:64-S128"
target triple = "x86_64-pc-linux-gnu"

@s = dso_local global i32 0, align 4
@.str = private unnamed_addr constant [3 x i8] c"%d\00", align 1
@a = common dso_local global [100 x i32] zeroinitializer, align 16
@p = common dso_local global i32 0, align 4
@.str.1 = private unnamed_addr constant [4 x i8] c"%d\0A\00", align 1

; Function Attrs: noinline nounwind uwtable
define dso_local void @factor(i32 %0, i32 %1, i32 %2) #0 {
  %4 = alloca i32, align 4
  %5 = alloca i32, align 4
  %6 = alloca i32, align 4
  %7 = alloca i32, align 4
  store i32 %0, i32* %4, align 4
  store i32 %1, i32* %5, align 4
  store i32 %2, i32* %6, align 4
  store i32 2, i32* %7, align 4
  br label %8

8:                                                ; preds = %34, %3
  %9 = load i32, i32* %7, align 4
  %10 = load i32, i32* %5, align 4
  %11 = sitofp i32 %10 to double
  %12 = call double @sqrt(double %11) #3
  %13 = fptosi double %12 to i32
  %14 = icmp sle i32 %9, %13
  br i1 %14, label %15, label %37

15:                                               ; preds = %8
  %16 = load i32, i32* %5, align 4
  %17 = load i32, i32* %7, align 4
  %18 = srem i32 %16, %17
  %19 = icmp eq i32 %18, 0
  br i1 %19, label %20, label %33

20:                                               ; preds = %15
  %21 = load i32, i32* %7, align 4
  %22 = load i32, i32* %4, align 4
  %23 = icmp sge i32 %21, %22
  br i1 %23, label %24, label %33

24:                                               ; preds = %20
  %25 = load i32, i32* @s, align 4
  %26 = add nsw i32 %25, 1
  store i32 %26, i32* @s, align 4
  %27 = load i32, i32* %7, align 4
  %28 = load i32, i32* %5, align 4
  %29 = load i32, i32* %7, align 4
  %30 = sdiv i32 %28, %29
  %31 = load i32, i32* %6, align 4
  %32 = add nsw i32 %31, 1
  call void @factor(i32 %27, i32 %30, i32 %32)
  br label %33

33:                                               ; preds = %24, %20, %15
  br label %34

34:                                               ; preds = %33
  %35 = load i32, i32* %7, align 4
  %36 = add nsw i32 %35, 1
  store i32 %36, i32* %7, align 4
  br label %8

37:                                               ; preds = %8
  ret void
}

; Function Attrs: nounwind
declare dso_local double @sqrt(double) #1

; Function Attrs: noinline nounwind uwtable
define dso_local i32 @main() #0 {
  %1 = alloca i32, align 4
  %2 = alloca i32, align 4
  %3 = alloca i32, align 4
  %4 = alloca i32, align 4
  store i32 0, i32* %1, align 4
  store i32 0, i32* %3, align 4
  %5 = call i32 (i8*, ...) @__isoc99_scanf(i8* getelementptr inbounds ([3 x i8], [3 x i8]* @.str, i64 0, i64 0), i32* %3)
  store i32 0, i32* %4, align 4
  br label %6

6:                                                ; preds = %15, %0
  %7 = load i32, i32* %4, align 4
  %8 = load i32, i32* %3, align 4
  %9 = icmp slt i32 %7, %8
  br i1 %9, label %10, label %18

10:                                               ; preds = %6
  %11 = load i32, i32* %4, align 4
  %12 = sext i32 %11 to i64
  %13 = getelementptr inbounds [100 x i32], [100 x i32]* @a, i64 0, i64 %12
  %14 = call i32 (i8*, ...) @__isoc99_scanf(i8* getelementptr inbounds ([3 x i8], [3 x i8]* @.str, i64 0, i64 0), i32* %13)
  br label %15

15:                                               ; preds = %10
  %16 = load i32, i32* %4, align 4
  %17 = add nsw i32 %16, 1
  store i32 %17, i32* %4, align 4
  br label %6

18:                                               ; preds = %6
  store i32 0, i32* %4, align 4
  br label %19

19:                                               ; preds = %56, %18
  %20 = load i32, i32* %4, align 4
  %21 = load i32, i32* %3, align 4
  %22 = icmp slt i32 %20, %21
  br i1 %22, label %23, label %59

23:                                               ; preds = %19
  %24 = load i32, i32* %4, align 4
  %25 = sext i32 %24 to i64
  %26 = getelementptr inbounds [100 x i32], [100 x i32]* @a, i64 0, i64 %25
  %27 = load i32, i32* %26, align 4
  store i32 %27, i32* @p, align 4
  store i32 0, i32* @s, align 4
  store i32 2, i32* %2, align 4
  br label %28

28:                                               ; preds = %48, %23
  %29 = load i32, i32* %2, align 4
  %30 = load i32, i32* @p, align 4
  %31 = sitofp i32 %30 to double
  %32 = call double @sqrt(double %31) #3
  %33 = fptosi double %32 to i32
  %34 = icmp sle i32 %29, %33
  br i1 %34, label %35, label %51

35:                                               ; preds = %28
  %36 = load i32, i32* @p, align 4
  %37 = load i32, i32* %2, align 4
  %38 = srem i32 %36, %37
  %39 = icmp eq i32 %38, 0
  br i1 %39, label %40, label %47

40:                                               ; preds = %35
  %41 = load i32, i32* @s, align 4
  %42 = add nsw i32 %41, 1
  store i32 %42, i32* @s, align 4
  %43 = load i32, i32* %2, align 4
  %44 = load i32, i32* @p, align 4
  %45 = load i32, i32* %2, align 4
  %46 = sdiv i32 %44, %45
  call void @factor(i32 %43, i32 %46, i32 2)
  br label %47

47:                                               ; preds = %40, %35
  br label %48

48:                                               ; preds = %47
  %49 = load i32, i32* %2, align 4
  %50 = add nsw i32 %49, 1
  store i32 %50, i32* %2, align 4
  br label %28

51:                                               ; preds = %28
  %52 = load i32, i32* @s, align 4
  %53 = load i32, i32* %4, align 4
  %54 = sext i32 %53 to i64
  %55 = getelementptr inbounds [100 x i32], [100 x i32]* @a, i64 0, i64 %54
  store i32 %52, i32* %55, align 4
  br label %56

56:                                               ; preds = %51
  %57 = load i32, i32* %4, align 4
  %58 = add nsw i32 %57, 1
  store i32 %58, i32* %4, align 4
  br label %19

59:                                               ; preds = %19
  store i32 0, i32* %4, align 4
  br label %60

60:                                               ; preds = %71, %59
  %61 = load i32, i32* %4, align 4
  %62 = load i32, i32* %3, align 4
  %63 = icmp slt i32 %61, %62
  br i1 %63, label %64, label %74

64:                                               ; preds = %60
  %65 = load i32, i32* %4, align 4
  %66 = sext i32 %65 to i64
  %67 = getelementptr inbounds [100 x i32], [100 x i32]* @a, i64 0, i64 %66
  %68 = load i32, i32* %67, align 4
  %69 = add nsw i32 %68, 1
  %70 = call i32 (i8*, ...) @printf(i8* getelementptr inbounds ([4 x i8], [4 x i8]* @.str.1, i64 0, i64 0), i32 %69)
  br label %71

71:                                               ; preds = %64
  %72 = load i32, i32* %4, align 4
  %73 = add nsw i32 %72, 1
  store i32 %73, i32* %4, align 4
  br label %60

74:                                               ; preds = %60
  ret i32 0
}

declare dso_local i32 @__isoc99_scanf(i8*, ...) #2

declare dso_local i32 @printf(i8*, ...) #2


!llvm.module.flags = !{!0}
!llvm.ident = !{!1}

!0 = !{i32 1, !"wchar_size", i32 4}
!1 = !{!"clang version 10.0.0-4ubuntu1 "}
